; Function Attrs: mustprogress nounwind uwtable
define hidden noundef i64 @_ZN14JfrThreadLocal13jvm_thread_idEPK6ThreadPS_(ptr noundef %0, ptr noundef %1) local_unnamed_addr #0 align 2 {
  %3 = getelementptr inbounds i8, ptr %1, i64 96
  %4 = load i64, ptr %3, align 8
  %.not = icmp eq i64 %4, 0
  br i1 %.not, label %5, label %27

5:                                                ; preds = %2
  %6 = getelementptr inbounds i8, ptr %1, i64 184
  tail call void @_ZN6Thread11SpinAcquireEPViPKc(ptr noundef nonnull %6, ptr noundef null) #13
  %7 = load i64, ptr %3, align 8
  %8 = icmp eq i64 %7, 0
  br i1 %8, label %9, label %_ZN14JfrThreadLocal16assign_thread_idEPK6ThreadPS_.exit

9:                                                ; preds = %5
  %10 = load ptr, ptr %0, align 8
  %11 = getelementptr inbounds i8, ptr %10, i64 56
  %12 = load ptr, ptr %11, align 8
  %13 = tail call noundef zeroext i1 %12(ptr noundef nonnull align 8 dereferenceable(888) %0) #13
  br i1 %13, label %14, label %25

14:                                               ; preds = %9
  %15 = tail call noundef ptr @_ZNK10JavaThread9threadObjEv(ptr noundef nonnull align 8 dereferenceable(1800) %0) #13
  %.not.i.i = icmp eq ptr %15, null
  br i1 %.not.i.i, label %_Z19load_java_thread_idPK6Thread.exit.i, label %16

16:                                               ; preds = %14
  %17 = load i32, ptr @_ZN16java_lang_Thread11_tid_offsetE, align 4
  %18 = ptrtoint ptr %15 to i64
  %19 = sext i32 %17 to i64
  %20 = add nsw i64 %19, %18
  %21 = inttoptr i64 %20 to ptr
  %22 = load i64, ptr %21, align 8
  br label %_Z19load_java_thread_idPK6Thread.exit.i

_Z19load_java_thread_idPK6Thread.exit.i:          ; preds = %16, %14
  %23 = phi i64 [ %22, %16 ], [ 0, %14 ]
  store i64 %23, ptr %3, align 8
  %24 = getelementptr inbounds i8, ptr %1, i64 88
  store volatile i64 %23, ptr %24, align 8
  br label %_ZN14JfrThreadLocal16assign_thread_idEPK6ThreadPS_.exit

25:                                               ; preds = %9
  %26 = tail call noundef i64 @_ZN16ThreadIdentifier4nextEv() #13
  store i64 %26, ptr %3, align 8
  br label %_ZN14JfrThreadLocal16assign_thread_idEPK6ThreadPS_.exit

_ZN14JfrThreadLocal16assign_thread_idEPK6ThreadPS_.exit: ; preds = %5, %_Z19load_java_thread_idPK6Thread.exit.i, %25
  %.013.i = phi i64 [ %23, %_Z19load_java_thread_idPK6Thread.exit.i ], [ %26, %25 ], [ %7, %5 ]
  tail call void @_ZN6Thread11SpinReleaseEPVi(ptr noundef nonnull %6) #13
  br label %27

27:                                               ; preds = %2, %_ZN14JfrThreadLocal16assign_thread_idEPK6ThreadPS_.exit
  %28 = phi i64 [ %.013.i, %_ZN14JfrThreadLocal16assign_thread_idEPK6ThreadPS_.exit ], [ %4, %2 ]
  ret i64 %28
}